#include <math.h>
#include <stdio.h>
#include <stdlib.h>
#include <string.h>
#include <iostream>
using namespace std;

int main()
{
	char str[100][20];  //?????????
	char (*p)[20]=NULL;  //???????????
	int n=0,i;
	while(cin>>str[n])
		n++;  //???????
	p=str;  //????????????p
	cout<<*p;  //p?????????????
	for(i=1;i<n;i++)
		cout<<' '<<*(p+i);  //??????
	cout<<endl;
	return 0;
}